; Function Attrs: nounwind uwtable
define zeroext range(i8 0, 2) i8 @l_ImportCompletion_isImportNameCompletionRequest___lambda__2(ptr noundef %0, ptr noundef %1, ptr readnone captures(none) %2) local_unnamed_addr #0 {
  %4 = tail call ptr @l_Lean_Syntax_getArg(ptr noundef %0, ptr noundef nonnull inttoptr (i64 3 to ptr)) #5
  %5 = tail call zeroext i8 @l_Lean_Syntax_isNone(ptr noundef %4) #5
  %6 = icmp eq i8 %5, 0
  %7 = ptrtoint ptr %4 to i64
  %8 = and i64 %7, 1
  %.not34 = icmp eq i64 %8, 0
  br i1 %6, label %9, label %42

9:                                                ; preds = %3
  br i1 %.not34, label %10, label %lean_inc.exit.thread

10:                                               ; preds = %9
  %.val.i = load i32, ptr %4, align 4, !tbaa !8
  %11 = icmp sgt i32 %.val.i, 0
  br i1 %11, label %12, label %14, !prof !11

12:                                               ; preds = %10
  %13 = add nuw i32 %.val.i, 1
  store i32 %13, ptr %4, align 4, !tbaa !8
  br label %lean_inc.exit

14:                                               ; preds = %10
  %.not.i32 = icmp eq i32 %.val.i, 0
  br i1 %.not.i32, label %lean_inc.exit, label %15

15:                                               ; preds = %14
  tail call void @lean_inc_ref_cold(ptr noundef nonnull %4) #5
  br label %lean_inc.exit

lean_inc.exit:                                    ; preds = %15, %14, %12
  %16 = tail call zeroext i8 @l_Lean_Syntax_matchesNull(ptr noundef nonnull %4, ptr noundef nonnull inttoptr (i64 3 to ptr)) #5
  %17 = icmp eq i8 %16, 0
  br i1 %17, label %21, label %28

lean_inc.exit.thread:                             ; preds = %9
  %18 = tail call zeroext i8 @l_Lean_Syntax_matchesNull(ptr noundef %4, ptr noundef nonnull inttoptr (i64 3 to ptr)) #5
  %19 = icmp eq i8 %18, 0
  br i1 %19, label %lean_dec.exit27, label %.thread33

.thread33:                                        ; preds = %lean_inc.exit.thread
  %20 = tail call ptr @l_Lean_Syntax_getArg(ptr noundef %4, ptr noundef nonnull inttoptr (i64 1 to ptr)) #5
  br label %lean_dec.exit26

21:                                               ; preds = %lean_inc.exit
  %22 = load i32, ptr %4, align 4, !tbaa !8
  %23 = icmp sgt i32 %22, 1
  br i1 %23, label %24, label %26, !prof !11

24:                                               ; preds = %21
  %25 = add nsw i32 %22, -1
  store i32 %25, ptr %4, align 4, !tbaa !8
  br label %lean_dec.exit27

26:                                               ; preds = %21
  %.not.i = icmp eq i32 %22, 0
  br i1 %.not.i, label %lean_dec.exit27, label %27

27:                                               ; preds = %26
  tail call void @lean_dec_ref_cold(ptr noundef nonnull %4) #5
  br label %lean_dec.exit27

28:                                               ; preds = %lean_inc.exit
  %29 = tail call ptr @l_Lean_Syntax_getArg(ptr noundef nonnull %4, ptr noundef nonnull inttoptr (i64 1 to ptr)) #5
  %30 = load i32, ptr %4, align 4, !tbaa !8
  %31 = icmp sgt i32 %30, 1
  br i1 %31, label %32, label %34, !prof !11

32:                                               ; preds = %28
  %33 = add nsw i32 %30, -1
  store i32 %33, ptr %4, align 4, !tbaa !8
  br label %lean_dec.exit26

34:                                               ; preds = %28
  %.not.i28 = icmp eq i32 %30, 0
  br i1 %.not.i28, label %lean_dec.exit26, label %35

35:                                               ; preds = %34
  tail call void @lean_dec_ref_cold(ptr noundef nonnull %4) #5
  br label %lean_dec.exit26

lean_dec.exit26:                                  ; preds = %35, %34, %32, %.thread33
  %36 = phi ptr [ %20, %.thread33 ], [ %29, %32 ], [ %29, %34 ], [ %29, %35 ]
  %37 = load ptr, ptr @l_ImportCompletion_isImportNameCompletionRequest___lambda__2___closed__5, align 8, !tbaa !4
  %38 = tail call zeroext i8 @l_Lean_Syntax_isOfKind(ptr noundef %36, ptr noundef %37) #5
  %39 = icmp eq i8 %38, 0
  br i1 %39, label %lean_dec.exit27, label %40

40:                                               ; preds = %lean_dec.exit26
  %41 = tail call zeroext i8 @l_ImportCompletion_isImportNameCompletionRequest___lambda__1(ptr noundef %0, ptr noundef %1, ptr nonnull poison)
  br label %lean_dec.exit27

42:                                               ; preds = %3
  br i1 %.not34, label %43, label %lean_dec.exit

43:                                               ; preds = %42
  %44 = load i32, ptr %4, align 4, !tbaa !8
  %45 = icmp sgt i32 %44, 1
  br i1 %45, label %46, label %48, !prof !11

46:                                               ; preds = %43
  %47 = add nsw i32 %44, -1
  store i32 %47, ptr %4, align 4, !tbaa !8
  br label %lean_dec.exit

48:                                               ; preds = %43
  %.not.i30 = icmp eq i32 %44, 0
  br i1 %.not.i30, label %lean_dec.exit, label %49

49:                                               ; preds = %48
  tail call void @lean_dec_ref_cold(ptr noundef nonnull %4) #5
  br label %lean_dec.exit

lean_dec.exit:                                    ; preds = %49, %48, %46, %42
  %50 = tail call zeroext i8 @l_ImportCompletion_isImportNameCompletionRequest___lambda__1(ptr noundef %0, ptr noundef %1, ptr nonnull poison)
  br label %lean_dec.exit27

lean_dec.exit27:                                  ; preds = %lean_inc.exit.thread, %24, %26, %27, %lean_dec.exit26, %40, %lean_dec.exit
  %.2 = phi i8 [ %50, %lean_dec.exit ], [ %41, %40 ], [ 0, %lean_dec.exit26 ], [ 0, %27 ], [ 0, %26 ], [ 0, %24 ], [ 0, %lean_inc.exit.thread ]
  ret i8 %.2
}